target datalayout = "e-m:e-p270:32:32-p271:32:32-p272:64:64-i64:64-i128:128-f80:128-n8:16:32:64-S128"
target triple = "x86_64-pc-linux-gnu"

%"class.Ipopt::AdaptiveMuUpdate" = type { %"class.Ipopt::MuUpdate.base", double, double, double, double, i8, double, double, double, double, double, double, i32, i32, i32, i32, double, double, double, %"class.Ipopt::SmartPtr.3", %"class.Ipopt::SmartPtr.4", %"class.Ipopt::SmartPtr.4", double, double, i32, %"class.std::__cxx11::list", double, %"class.Ipopt::Filter", i8, i8, i8, %"class.Ipopt::SmartPtr.10" }
%"class.Ipopt::MuUpdate.base" = type { %"class.Ipopt::AlgorithmStrategyObject.base" }
%"class.Ipopt::AlgorithmStrategyObject.base" = type <{ %"class.Ipopt::ReferencedObject.base", [4 x i8], %"class.Ipopt::SmartPtr", %"class.Ipopt::SmartPtr.0", %"class.Ipopt::SmartPtr.1", %"class.Ipopt::SmartPtr.2", i8 }>
%"class.Ipopt::ReferencedObject.base" = type <{ ptr, i32 }>
%"class.Ipopt::SmartPtr" = type { ptr }
%"class.Ipopt::SmartPtr.0" = type { ptr }
%"class.Ipopt::SmartPtr.1" = type { ptr }
%"class.Ipopt::SmartPtr.2" = type { ptr }
%"class.Ipopt::SmartPtr.3" = type { ptr }
%"class.Ipopt::SmartPtr.4" = type { ptr }
%"class.std::__cxx11::list" = type { %"class.std::__cxx11::_List_base" }
%"class.std::__cxx11::_List_base" = type { %"struct.std::__cxx11::_List_base<double, std::allocator<double>>::_List_impl" }
%"struct.std::__cxx11::_List_base<double, std::allocator<double>>::_List_impl" = type { %"struct.std::__detail::_List_node_header" }
%"struct.std::__detail::_List_node_header" = type { %"struct.std::__detail::_List_node_base", i64 }
%"struct.std::__detail::_List_node_base" = type { ptr, ptr }
%"class.Ipopt::Filter" = type { i32, %"class.std::__cxx11::list.5" }
%"class.std::__cxx11::list.5" = type { %"class.std::__cxx11::_List_base.6" }
%"class.std::__cxx11::_List_base.6" = type { %"struct.std::__cxx11::_List_base<Ipopt::FilterEntry *, std::allocator<Ipopt::FilterEntry *>>::_List_impl" }
%"struct.std::__cxx11::_List_base<Ipopt::FilterEntry *, std::allocator<Ipopt::FilterEntry *>>::_List_impl" = type { %"struct.std::__detail::_List_node_header" }
%"class.Ipopt::SmartPtr.10" = type { ptr }
%"class.Ipopt::AlgorithmStrategyObject" = type <{ %"class.Ipopt::ReferencedObject.base", [4 x i8], %"class.Ipopt::SmartPtr", %"class.Ipopt::SmartPtr.0", %"class.Ipopt::SmartPtr.1", %"class.Ipopt::SmartPtr.2", i8, [7 x i8] }>
%"struct.std::_List_iterator" = type { ptr }
%"struct.std::_List_node.62" = type { %"struct.std::__detail::_List_node_base", %"struct.__gnu_cxx::__aligned_membuf.63" }
%"struct.__gnu_cxx::__aligned_membuf.63" = type { [8 x i8] }

; Function Attrs: mustprogress nounwind uwtable
define linkonce_odr noundef ptr @_ZN9__gnu_cxx16__aligned_membufIdE7_M_addrEv(ptr noundef nonnull align 8 dereferenceable(8) %0) #5 comdat align 2 {
  %2 = alloca ptr, align 8
  store ptr %0, ptr %2, align 8
  %3 = load ptr, ptr %2, align 8
  %4 = getelementptr inbounds %"struct.__gnu_cxx::__aligned_membuf.63", ptr %3, i32 0, i32 0
  ret ptr %4
}

; Function Attrs: mustprogress nounwind uwtable
define linkonce_odr noundef ptr @_ZN9__gnu_cxx16__aligned_membufIdE6_M_ptrEv(ptr noundef nonnull align 8 dereferenceable(8) %0) #5 comdat align 2 {
  %2 = alloca ptr, align 8
  store ptr %0, ptr %2, align 8
  %3 = load ptr, ptr %2, align 8
  %4 = call noundef ptr @_ZN9__gnu_cxx16__aligned_membufIdE7_M_addrEv(ptr noundef nonnull align 8 dereferenceable(8) %3) #3
  ret ptr %4
}

; Function Attrs: mustprogress nounwind uwtable
define linkonce_odr noundef i64 @_ZNKSt7__cxx1110_List_baseIdSaIdEE11_M_get_sizeEv(ptr noundef nonnull align 8 dereferenceable(24) %0) #5 comdat align 2 {
  %2 = alloca ptr, align 8
  store ptr %0, ptr %2, align 8
  %3 = load ptr, ptr %2, align 8
  %4 = getelementptr inbounds %"class.std::__cxx11::_List_base", ptr %3, i32 0, i32 0
  %5 = getelementptr inbounds %"struct.std::__cxx11::_List_base<double, std::allocator<double>>::_List_impl", ptr %4, i32 0, i32 0
  %6 = getelementptr inbounds %"struct.std::__detail::_List_node_header", ptr %5, i32 0, i32 1
  %7 = load i64, ptr %6, align 8
  ret i64 %7
}

; Function Attrs: mustprogress nounwind uwtable
define linkonce_odr noundef nonnull align 8 dereferenceable(8) ptr @_ZSt3minIdERKT_S2_S2_(ptr noundef nonnull align 8 dereferenceable(8) %0, ptr noundef nonnull align 8 dereferenceable(8) %1) #5 comdat {
  %3 = alloca ptr, align 8
  %4 = alloca ptr, align 8
  %5 = alloca ptr, align 8
  store ptr %0, ptr %4, align 8
  store ptr %1, ptr %5, align 8
  %6 = load ptr, ptr %5, align 8
  %7 = load double, ptr %6, align 8
  %8 = load ptr, ptr %4, align 8
  %9 = load double, ptr %8, align 8
  %10 = fcmp olt double %7, %9
  br i1 %10, label %11, label %13

11:                                               ; preds = %2
  %12 = load ptr, ptr %5, align 8
  store ptr %12, ptr %3, align 8
  br label %15

13:                                               ; preds = %2
  %14 = load ptr, ptr %4, align 8
  store ptr %14, ptr %3, align 8
  br label %15

15:                                               ; preds = %13, %11
  %16 = load ptr, ptr %3, align 8
  ret ptr %16
}

; Function Attrs: mustprogress nounwind uwtable
define linkonce_odr noundef nonnull align 8 dereferenceable(2185) ptr @_ZNK5Ipopt8SmartPtrINS_25IpoptCalculatedQuantitiesEEdeEv(ptr noundef nonnull align 8 dereferenceable(8) %0) #5 comdat align 2 {
  %2 = alloca ptr, align 8
  store ptr %0, ptr %2, align 8
  %3 = load ptr, ptr %2, align 8
  %4 = getelementptr inbounds %"class.Ipopt::SmartPtr.2", ptr %3, i32 0, i32 0
  %5 = load ptr, ptr %4, align 8
  ret ptr %5
}

; Function Attrs: mustprogress nounwind uwtable
define linkonce_odr noundef ptr @_ZNSt10_List_nodeIdE9_M_valptrEv(ptr noundef nonnull align 8 dereferenceable(24) %0) #5 comdat align 2 {
  %2 = alloca ptr, align 8
  store ptr %0, ptr %2, align 8
  %3 = load ptr, ptr %2, align 8
  %4 = getelementptr inbounds %"struct.std::_List_node.62", ptr %3, i32 0, i32 1
  %5 = call noundef ptr @_ZN9__gnu_cxx16__aligned_membufIdE6_M_ptrEv(ptr noundef nonnull align 8 dereferenceable(8) %4) #3
  ret ptr %5
}

; Function Attrs: mustprogress nounwind uwtable
define linkonce_odr void @_ZNSt14_List_iteratorIdEC2EPNSt8__detail15_List_node_baseE(ptr noundef nonnull align 8 dereferenceable(8) %0, ptr noundef %1) unnamed_addr #5 comdat align 2 {
  %3 = alloca ptr, align 8
  %4 = alloca ptr, align 8
  store ptr %0, ptr %3, align 8
  store ptr %1, ptr %4, align 8
  %5 = load ptr, ptr %3, align 8
  %6 = getelementptr inbounds %"struct.std::_List_iterator", ptr %5, i32 0, i32 0
  %7 = load ptr, ptr %4, align 8
  store ptr %7, ptr %6, align 8
  ret void
}

; Function Attrs: noreturn nounwind uwtable
define linkonce_odr hidden void @__clang_call_terminate(ptr noundef %0) #8 comdat {
  %2 = call ptr @__cxa_begin_catch(ptr %0) #3
  call void @_ZSt9terminatev() #13
  unreachable
}

; Function Attrs: mustprogress uwtable
define linkonce_odr noundef i64 @_ZNKSt7__cxx114listIdSaIdEE13_M_node_countEv(ptr noundef nonnull align 8 dereferenceable(24) %0) #4 comdat align 2 {
  %2 = alloca ptr, align 8
  store ptr %0, ptr %2, align 8
  %3 = load ptr, ptr %2, align 8
  %4 = call noundef i64 @_ZNKSt7__cxx1110_List_baseIdSaIdEE11_M_get_sizeEv(ptr noundef nonnull align 8 dereferenceable(24) %3)
  ret i64 %4
}

; Function Attrs: mustprogress uwtable
define linkonce_odr noundef double @_ZN5Ipopt3MinIdEET_S1_S1_(double noundef %0, double noundef %1) #4 comdat {
  %3 = alloca double, align 8
  %4 = alloca double, align 8
  store double %0, ptr %3, align 8
  store double %1, ptr %4, align 8
  %5 = call noundef nonnull align 8 dereferenceable(8) ptr @_ZSt3minIdERKT_S2_S2_(ptr noundef nonnull align 8 dereferenceable(8) %3, ptr noundef nonnull align 8 dereferenceable(8) %4)
  %6 = load double, ptr %5, align 8
  ret double %6
}

; Function Attrs: mustprogress uwtable
define linkonce_odr noundef nonnull align 8 dereferenceable(2185) ptr @_ZNK5Ipopt23AlgorithmStrategyObject4IpCqEv(ptr noundef nonnull align 8 dereferenceable(49) %0) #4 comdat align 2 {
  %2 = alloca ptr, align 8
  store ptr %0, ptr %2, align 8
  %3 = load ptr, ptr %2, align 8
  %4 = getelementptr inbounds %"class.Ipopt::AlgorithmStrategyObject", ptr %3, i32 0, i32 5
  %5 = call noundef nonnull align 8 dereferenceable(2185) ptr @_ZNK5Ipopt8SmartPtrINS_25IpoptCalculatedQuantitiesEEdeEv(ptr noundef nonnull align 8 dereferenceable(8) %4)
  ret ptr %5
}

; Function Attrs: mustprogress nounwind uwtable
define linkonce_odr noundef nonnull align 8 dereferenceable(8) ptr @_ZNSt14_List_iteratorIdEppEv(ptr noundef nonnull align 8 dereferenceable(8) %0) #5 comdat align 2 {
  %2 = alloca ptr, align 8
  store ptr %0, ptr %2, align 8
  %3 = load ptr, ptr %2, align 8
  %4 = getelementptr inbounds %"struct.std::_List_iterator", ptr %3, i32 0, i32 0
  %5 = load ptr, ptr %4, align 8
  %6 = getelementptr inbounds %"struct.std::__detail::_List_node_base", ptr %5, i32 0, i32 0
  %7 = load ptr, ptr %6, align 8
  %8 = getelementptr inbounds %"struct.std::_List_iterator", ptr %3, i32 0, i32 0
  store ptr %7, ptr %8, align 8
  ret ptr %3
}

; Function Attrs: mustprogress nounwind uwtable
define linkonce_odr noundef nonnull align 8 dereferenceable(8) ptr @_ZNKSt14_List_iteratorIdEdeEv(ptr noundef nonnull align 8 dereferenceable(8) %0) #5 comdat align 2 {
  %2 = alloca ptr, align 8
  store ptr %0, ptr %2, align 8
  %3 = load ptr, ptr %2, align 8
  %4 = getelementptr inbounds %"struct.std::_List_iterator", ptr %3, i32 0, i32 0
  %5 = load ptr, ptr %4, align 8
  %6 = call noundef ptr @_ZNSt10_List_nodeIdE9_M_valptrEv(ptr noundef nonnull align 8 dereferenceable(24) %5)
  ret ptr %6
}

; Function Attrs: mustprogress nounwind uwtable
define linkonce_odr noundef zeroext i1 @_ZStneRKSt14_List_iteratorIdES2_(ptr noundef nonnull align 8 dereferenceable(8) %0, ptr noundef nonnull align 8 dereferenceable(8) %1) #5 comdat {
  %3 = alloca ptr, align 8
  %4 = alloca ptr, align 8
  store ptr %0, ptr %3, align 8
  store ptr %1, ptr %4, align 8
  %5 = load ptr, ptr %3, align 8
  %6 = getelementptr inbounds %"struct.std::_List_iterator", ptr %5, i32 0, i32 0
  %7 = load ptr, ptr %6, align 8
  %8 = load ptr, ptr %4, align 8
  %9 = getelementptr inbounds %"struct.std::_List_iterator", ptr %8, i32 0, i32 0
  %10 = load ptr, ptr %9, align 8
  %11 = icmp ne ptr %7, %10
  ret i1 %11
}

; Function Attrs: mustprogress nounwind uwtable
define linkonce_odr ptr @_ZNSt7__cxx114listIdSaIdEE3endEv(ptr noundef nonnull align 8 dereferenceable(24) %0) #5 comdat align 2 {
  %2 = alloca %"struct.std::_List_iterator", align 8
  %3 = alloca ptr, align 8
  store ptr %0, ptr %3, align 8
  %4 = load ptr, ptr %3, align 8
  %5 = getelementptr inbounds %"class.std::__cxx11::_List_base", ptr %4, i32 0, i32 0
  %6 = getelementptr inbounds %"struct.std::__cxx11::_List_base<double, std::allocator<double>>::_List_impl", ptr %5, i32 0, i32 0
  call void @_ZNSt14_List_iteratorIdEC2EPNSt8__detail15_List_node_baseE(ptr noundef nonnull align 8 dereferenceable(8) %2, ptr noundef %6) #3
  %7 = getelementptr inbounds %"struct.std::_List_iterator", ptr %2, i32 0, i32 0
  %8 = load ptr, ptr %7, align 8
  ret ptr %8
}

; Function Attrs: mustprogress nounwind uwtable
define linkonce_odr ptr @_ZNSt7__cxx114listIdSaIdEE5beginEv(ptr noundef nonnull align 8 dereferenceable(24) %0) #5 comdat align 2 {
  %2 = alloca %"struct.std::_List_iterator", align 8
  %3 = alloca ptr, align 8
  store ptr %0, ptr %3, align 8
  %4 = load ptr, ptr %3, align 8
  %5 = getelementptr inbounds %"class.std::__cxx11::_List_base", ptr %4, i32 0, i32 0
  %6 = getelementptr inbounds %"struct.std::__cxx11::_List_base<double, std::allocator<double>>::_List_impl", ptr %5, i32 0, i32 0
  %7 = getelementptr inbounds %"struct.std::__detail::_List_node_base", ptr %6, i32 0, i32 0
  %8 = load ptr, ptr %7, align 8
  call void @_ZNSt14_List_iteratorIdEC2EPNSt8__detail15_List_node_baseE(ptr noundef nonnull align 8 dereferenceable(8) %2, ptr noundef %8) #3
  %9 = getelementptr inbounds %"struct.std::_List_iterator", ptr %2, i32 0, i32 0
  %10 = load ptr, ptr %9, align 8
  ret ptr %10
}

; Function Attrs: mustprogress nounwind uwtable
define linkonce_odr void @_ZNSt14_List_iteratorIdEC2Ev(ptr noundef nonnull align 8 dereferenceable(8) %0) unnamed_addr #5 comdat align 2 {
  %2 = alloca ptr, align 8
  store ptr %0, ptr %2, align 8
  %3 = load ptr, ptr %2, align 8
  %4 = getelementptr inbounds %"struct.std::_List_iterator", ptr %3, i32 0, i32 0
  store ptr null, ptr %4, align 8
  ret void
}

; Function Attrs: mustprogress nounwind uwtable
define linkonce_odr noundef i64 @_ZNKSt7__cxx114listIdSaIdEE4sizeEv(ptr noundef nonnull align 8 dereferenceable(24) %0) #5 comdat align 2 personality ptr @__gxx_personality_v0 {
  %2 = alloca ptr, align 8
  store ptr %0, ptr %2, align 8
  %3 = load ptr, ptr %2, align 8
  %4 = invoke noundef i64 @_ZNKSt7__cxx114listIdSaIdEE13_M_node_countEv(ptr noundef nonnull align 8 dereferenceable(24) %3)
          to label %5 unwind label %6

5:                                                ; preds = %1
  ret i64 %4

6:                                                ; preds = %1
  %7 = landingpad { ptr, i32 }
          catch ptr null
  %8 = extractvalue { ptr, i32 } %7, 0
  call void @__clang_call_terminate(ptr %8) #13
  unreachable
}

; Function Attrs: mustprogress uwtable
define noundef zeroext i1 @_ZN5Ipopt16AdaptiveMuUpdate23CheckSufficientProgressEv(ptr noundef nonnull align 8 dereferenceable(312) %0) #4 align 2 {
  %2 = alloca ptr, align 8
  %3 = alloca i8, align 1
  %4 = alloca i32, align 4
  %5 = alloca double, align 8
  %6 = alloca %"struct.std::_List_iterator", align 8
  %7 = alloca %"struct.std::_List_iterator", align 8
  %8 = alloca %"struct.std::_List_iterator", align 8
  %9 = alloca double, align 8
  %10 = alloca double, align 8
  store ptr %0, ptr %2, align 8
  %11 = load ptr, ptr %2, align 8
  store i8 1, ptr %3, align 1
  %12 = getelementptr inbounds %"class.Ipopt::AdaptiveMuUpdate", ptr %11, i32 0, i32 15
  %13 = load i32, ptr %12, align 4
  switch i32 %13, label %77 [
    i32 0, label %14
    i32 1, label %46
    i32 2, label %76
  ]

14:                                               ; preds = %1
  %15 = getelementptr inbounds %"class.Ipopt::AdaptiveMuUpdate", ptr %11, i32 0, i32 25
  %16 = call noundef i64 @_ZNKSt7__cxx114listIdSaIdEE4sizeEv(ptr noundef nonnull align 8 dereferenceable(24) %15) #3
  %17 = trunc i64 %16 to i32
  store i32 %17, ptr %4, align 4
  %18 = load i32, ptr %4, align 4
  %19 = getelementptr inbounds %"class.Ipopt::AdaptiveMuUpdate", ptr %11, i32 0, i32 24
  %20 = load i32, ptr %19, align 8
  %21 = icmp sge i32 %18, %20
  br i1 %21, label %22, label %45

22:                                               ; preds = %14
  store i8 0, ptr %3, align 1
  %23 = call noundef double @_ZN5Ipopt16AdaptiveMuUpdate26quality_function_pd_systemEv(ptr noundef nonnull align 8 dereferenceable(312) %11)
  store double %23, ptr %5, align 8
  call void @_ZNSt14_List_iteratorIdEC2Ev(ptr noundef nonnull align 8 dereferenceable(8) %6) #3
  %24 = getelementptr inbounds %"class.Ipopt::AdaptiveMuUpdate", ptr %11, i32 0, i32 25
  %25 = call ptr @_ZNSt7__cxx114listIdSaIdEE5beginEv(ptr noundef nonnull align 8 dereferenceable(24) %24) #3
  %26 = getelementptr inbounds %"struct.std::_List_iterator", ptr %7, i32 0, i32 0
  store ptr %25, ptr %26, align 8
  call void @llvm.memcpy.p0.p0.i64(ptr align 8 %6, ptr align 8 %7, i64 8, i1 false)
  br label %27

27:                                               ; preds = %42, %22
  %28 = getelementptr inbounds %"class.Ipopt::AdaptiveMuUpdate", ptr %11, i32 0, i32 25
  %29 = call ptr @_ZNSt7__cxx114listIdSaIdEE3endEv(ptr noundef nonnull align 8 dereferenceable(24) %28) #3
  %30 = getelementptr inbounds %"struct.std::_List_iterator", ptr %8, i32 0, i32 0
  store ptr %29, ptr %30, align 8
  %31 = call noundef zeroext i1 @_ZStneRKSt14_List_iteratorIdES2_(ptr noundef nonnull align 8 dereferenceable(8) %6, ptr noundef nonnull align 8 dereferenceable(8) %8) #3
  br i1 %31, label %32, label %44

32:                                               ; preds = %27
  %33 = load double, ptr %5, align 8
  %34 = getelementptr inbounds %"class.Ipopt::AdaptiveMuUpdate", ptr %11, i32 0, i32 26
  %35 = load double, ptr %34, align 8
  %36 = call noundef nonnull align 8 dereferenceable(8) ptr @_ZNKSt14_List_iteratorIdEdeEv(ptr noundef nonnull align 8 dereferenceable(8) %6) #3
  %37 = load double, ptr %36, align 8
  %38 = fmul double %35, %37
  %39 = fcmp ole double %33, %38
  br i1 %39, label %40, label %41

40:                                               ; preds = %32
  store i8 1, ptr %3, align 1
  br label %41

41:                                               ; preds = %40, %32
  br label %42

42:                                               ; preds = %41
  %43 = call noundef nonnull align 8 dereferenceable(8) ptr @_ZNSt14_List_iteratorIdEppEv(ptr noundef nonnull align 8 dereferenceable(8) %6) #3
  br label %27, !llvm.loop !4

44:                                               ; preds = %27
  br label %45

45:                                               ; preds = %44, %14
  br label %78

46:                                               ; preds = %1
  %47 = call noundef nonnull align 8 dereferenceable(2185) ptr @_ZNK5Ipopt23AlgorithmStrategyObject4IpCqEv(ptr noundef nonnull align 8 dereferenceable(49) %11)
  %48 = load ptr, ptr %47, align 8
  %49 = getelementptr inbounds ptr, ptr %48, i64 24
  %50 = load ptr, ptr %49, align 8
  %51 = call noundef double %50(ptr noundef nonnull align 8 dereferenceable(2185) %47)
  store double %51, ptr %9, align 8
  %52 = getelementptr inbounds %"class.Ipopt::AdaptiveMuUpdate", ptr %11, i32 0, i32 17
  %53 = load double, ptr %52, align 8
  %54 = getelementptr inbounds %"class.Ipopt::AdaptiveMuUpdate", ptr %11, i32 0, i32 16
  %55 = load double, ptr %54, align 8
  %56 = load double, ptr %9, align 8
  %57 = call noundef double @_ZN5Ipopt3MinIdEET_S1_S1_(double noundef %55, double noundef %56)
  %58 = fmul double %53, %57
  store double %58, ptr %10, align 8
  %59 = getelementptr inbounds %"class.Ipopt::AdaptiveMuUpdate", ptr %11, i32 0, i32 27
  %60 = call noundef nonnull align 8 dereferenceable(2185) ptr @_ZNK5Ipopt23AlgorithmStrategyObject4IpCqEv(ptr noundef nonnull align 8 dereferenceable(49) %11)
  %61 = load ptr, ptr %60, align 8
  %62 = getelementptr inbounds ptr, ptr %61, i64 2
  %63 = load ptr, ptr %62, align 8
  %64 = call noundef double %63(ptr noundef nonnull align 8 dereferenceable(2185) %60)
  %65 = load double, ptr %10, align 8
  %66 = fadd double %64, %65
  %67 = call noundef nonnull align 8 dereferenceable(2185) ptr @_ZNK5Ipopt23AlgorithmStrategyObject4IpCqEv(ptr noundef nonnull align 8 dereferenceable(49) %11)
  %68 = load ptr, ptr %67, align 8
  %69 = getelementptr inbounds ptr, ptr %68, i64 8
  %70 = load ptr, ptr %69, align 8
  %71 = call noundef double %70(ptr noundef nonnull align 8 dereferenceable(2185) %67)
  %72 = load double, ptr %10, align 8
  %73 = fadd double %71, %72
  %74 = call noundef zeroext i1 @_ZNK5Ipopt6Filter10AcceptableEdd(ptr noundef nonnull align 8 dereferenceable(32) %59, double noundef %66, double noundef %73)
  %75 = zext i1 %74 to i8
  store i8 %75, ptr %3, align 1
  br label %78

76:                                               ; preds = %1
  store i8 1, ptr %3, align 1
  br label %78

77:                                               ; preds = %1
  br label %78

78:                                               ; preds = %77, %76, %46, %45
  %79 = load i8, ptr %3, align 1
  %80 = trunc i8 %79 to i1
  ret i1 %80
}