; Function Attrs: mustprogress uwtable
define noundef zeroext i1 @_ZN5Ipopt16AdaptiveMuUpdate23CheckSufficientProgressEv(ptr noundef nonnull align 8 dereferenceable(312) %0) local_unnamed_addr #3 align 2 personality ptr @__gxx_personality_v0 {
  %2 = getelementptr inbounds i8, ptr %0, i64 156
  %3 = load i32, ptr %2, align 4
  switch i32 %3, label %.loopexit [
    i32 0, label %4
    i32 1, label %20
  ]

4:                                                ; preds = %1
  %5 = getelementptr inbounds i8, ptr %0, i64 232
  %6 = getelementptr inbounds i8, ptr %0, i64 248
  %7 = load i64, ptr %6, align 8
  %8 = trunc i64 %7 to i32
  %9 = getelementptr inbounds i8, ptr %0, i64 224
  %10 = load i32, ptr %9, align 8
  %.not = icmp sgt i32 %10, %8
  br i1 %.not, label %.loopexit, label %11

11:                                               ; preds = %4
  %12 = tail call noundef double @_ZN5Ipopt16AdaptiveMuUpdate26quality_function_pd_systemEv(ptr noundef nonnull align 8 dereferenceable(312) %0)
  %.sroa.06.010 = load ptr, ptr %5, align 8
  %.not911 = icmp eq ptr %.sroa.06.010, %5
  br i1 %.not911, label %.loopexit, label %.lr.ph

.lr.ph:                                           ; preds = %11
  %13 = getelementptr inbounds i8, ptr %0, i64 256
  %14 = load double, ptr %13, align 8
  br label %15

15:                                               ; preds = %.lr.ph, %15
  %.sroa.06.013 = phi ptr [ %.sroa.06.010, %.lr.ph ], [ %.sroa.06.0, %15 ]
  %.012 = phi i8 [ 0, %.lr.ph ], [ %.1, %15 ]
  %16 = getelementptr inbounds i8, ptr %.sroa.06.013, i64 16
  %17 = load double, ptr %16, align 8
  %18 = fmul double %14, %17
  %19 = fcmp ugt double %12, %18
  %.1 = select i1 %19, i8 %.012, i8 1
  %.sroa.06.0 = load ptr, ptr %.sroa.06.013, align 8
  %.not9 = icmp eq ptr %.sroa.06.0, %5
  br i1 %.not9, label %.loopexit, label %15, !llvm.loop !61

20:                                               ; preds = %1
  %21 = getelementptr inbounds i8, ptr %0, i64 40
  %22 = load ptr, ptr %21, align 8
  %23 = load ptr, ptr %22, align 8
  %24 = getelementptr inbounds i8, ptr %23, i64 192
  %25 = load ptr, ptr %24, align 8
  %26 = tail call noundef double %25(ptr noundef nonnull align 8 dereferenceable(2185) %22)
  %27 = getelementptr inbounds i8, ptr %0, i64 168
  %28 = load double, ptr %27, align 8
  %29 = getelementptr inbounds i8, ptr %0, i64 160
  %30 = load double, ptr %29, align 8
  %31 = fcmp olt double %26, %30
  %.sroa.speculated.i = select i1 %31, double %26, double %30
  %32 = fmul double %28, %.sroa.speculated.i
  %33 = getelementptr inbounds i8, ptr %0, i64 264
  %34 = load ptr, ptr %21, align 8
  %35 = load ptr, ptr %34, align 8
  %36 = getelementptr inbounds i8, ptr %35, i64 16
  %37 = load ptr, ptr %36, align 8
  %38 = tail call noundef double %37(ptr noundef nonnull align 8 dereferenceable(2185) %34)
  %39 = fadd double %32, %38
  %40 = load ptr, ptr %21, align 8
  %41 = load ptr, ptr %40, align 8
  %42 = getelementptr inbounds i8, ptr %41, i64 64
  %43 = load ptr, ptr %42, align 8
  %44 = tail call noundef double %43(ptr noundef nonnull align 8 dereferenceable(2185) %40)
  %45 = fadd double %32, %44
  %46 = tail call noundef zeroext i1 @_ZNK5Ipopt6Filter10AcceptableEdd(ptr noundef nonnull align 8 dereferenceable(32) %33, double noundef %39, double noundef %45)
  %47 = zext i1 %46 to i8
  br label %.loopexit

.loopexit:                                        ; preds = %15, %11, %1, %4, %20
  %.2 = phi i8 [ %47, %20 ], [ 1, %4 ], [ 1, %1 ], [ 0, %11 ], [ %.1, %15 ]
  %48 = and i8 %.2, 1
  %49 = icmp ne i8 %48, 0
  ret i1 %49
}